target datalayout = "e-m:e-p270:32:32-p271:32:32-p272:64:64-i64:64-i128:128-f80:128-n8:16:32:64-S128"
target triple = "x86_64-pc-linux-gnu"

%struct.SN_env = type { ptr, i32, i32, i32, i32, i32, ptr, ptr }

@s_46 = internal constant [18 x i8] c"\E0\AF\81\E0\AE\99\E0\AF\8D\E0\AE\95\E0\AE\B3\E0\AF\8D", align 16
@s_47 = internal constant [3 x i8] c"\E0\AF\8D", align 1
@s_48 = internal constant [15 x i8] c"\E0\AE\B1\E0\AF\8D\E0\AE\95\E0\AE\B3\E0\AF\8D", align 1
@s_49 = internal constant [6 x i8] c"\E0\AE\B2\E0\AF\8D", align 1
@s_50 = internal constant [15 x i8] c"\E0\AE\9F\E0\AF\8D\E0\AE\95\E0\AE\B3\E0\AF\8D", align 1
@s_51 = internal constant [6 x i8] c"\E0\AE\B3\E0\AF\8D", align 1
@s_52 = internal constant [9 x i8] c"\E0\AE\95\E0\AE\B3\E0\AF\8D", align 1

; Function Attrs: nounwind uwtable
define internal i32 @r_remove_plural_suffix(ptr noundef %0) #0 {
  %2 = alloca i32, align 4
  %3 = alloca ptr, align 8
  %4 = alloca i32, align 4
  %5 = alloca i32, align 4
  %6 = alloca i32, align 4
  %7 = alloca i32, align 4
  %8 = alloca i32, align 4
  %9 = alloca i32, align 4
  %10 = alloca i32, align 4
  %11 = alloca i32, align 4
  store ptr %0, ptr %3, align 8
  %12 = load ptr, ptr %3, align 8
  %13 = getelementptr inbounds nuw %struct.SN_env, ptr %12, i32 0, i32 7
  %14 = load ptr, ptr %13, align 8
  %15 = getelementptr inbounds i32, ptr %14, i64 1
  store i32 0, ptr %15, align 4
  %16 = load ptr, ptr %3, align 8
  %17 = getelementptr inbounds nuw %struct.SN_env, ptr %16, i32 0, i32 1
  %18 = load i32, ptr %17, align 8
  %19 = load ptr, ptr %3, align 8
  %20 = getelementptr inbounds nuw %struct.SN_env, ptr %19, i32 0, i32 3
  store i32 %18, ptr %20, align 8
  %21 = load ptr, ptr %3, align 8
  %22 = getelementptr inbounds nuw %struct.SN_env, ptr %21, i32 0, i32 2
  %23 = load i32, ptr %22, align 4
  %24 = load ptr, ptr %3, align 8
  %25 = getelementptr inbounds nuw %struct.SN_env, ptr %24, i32 0, i32 1
  store i32 %23, ptr %25, align 8
  call void @llvm.lifetime.start.p0(i64 4, ptr %4) #3
  %26 = load ptr, ptr %3, align 8
  %27 = getelementptr inbounds nuw %struct.SN_env, ptr %26, i32 0, i32 2
  %28 = load i32, ptr %27, align 4
  %29 = load ptr, ptr %3, align 8
  %30 = getelementptr inbounds nuw %struct.SN_env, ptr %29, i32 0, i32 1
  %31 = load i32, ptr %30, align 8
  %32 = sub i32 %28, %31
  store i32 %32, ptr %4, align 4
  %33 = load ptr, ptr %3, align 8
  %34 = getelementptr inbounds nuw %struct.SN_env, ptr %33, i32 0, i32 1
  %35 = load i32, ptr %34, align 8
  %36 = load ptr, ptr %3, align 8
  %37 = getelementptr inbounds nuw %struct.SN_env, ptr %36, i32 0, i32 5
  store i32 %35, ptr %37, align 8
  %38 = load ptr, ptr %3, align 8
  %39 = call i32 @eq_s_b(ptr noundef %38, i32 noundef 18, ptr noundef @s_46)
  %40 = icmp ne i32 %39, 0
  br i1 %40, label %42, label %41

41:                                               ; preds = %1
  br label %98

42:                                               ; preds = %1
  call void @llvm.lifetime.start.p0(i64 4, ptr %5) #3
  %43 = load ptr, ptr %3, align 8
  %44 = getelementptr inbounds nuw %struct.SN_env, ptr %43, i32 0, i32 2
  %45 = load i32, ptr %44, align 4
  %46 = load ptr, ptr %3, align 8
  %47 = getelementptr inbounds nuw %struct.SN_env, ptr %46, i32 0, i32 1
  %48 = load i32, ptr %47, align 8
  %49 = sub i32 %45, %48
  store i32 %49, ptr %5, align 4
  call void @llvm.lifetime.start.p0(i64 4, ptr %6) #3
  %50 = load ptr, ptr %3, align 8
  %51 = getelementptr inbounds nuw %struct.SN_env, ptr %50, i32 0, i32 2
  %52 = load i32, ptr %51, align 4
  %53 = load ptr, ptr %3, align 8
  %54 = getelementptr inbounds nuw %struct.SN_env, ptr %53, i32 0, i32 1
  %55 = load i32, ptr %54, align 8
  %56 = sub i32 %52, %55
  store i32 %56, ptr %6, align 4
  %57 = load ptr, ptr %3, align 8
  %58 = call i32 @find_among_b(ptr noundef %57, ptr noundef @a_13, i32 noundef 6)
  %59 = icmp ne i32 %58, 0
  br i1 %59, label %61, label %60

60:                                               ; preds = %42
  br label %62

61:                                               ; preds = %42
  store i32 2, ptr %7, align 4
  br label %70

62:                                               ; preds = %60
  %63 = load ptr, ptr %3, align 8
  %64 = getelementptr inbounds nuw %struct.SN_env, ptr %63, i32 0, i32 2
  %65 = load i32, ptr %64, align 4
  %66 = load i32, ptr %6, align 4
  %67 = sub i32 %65, %66
  %68 = load ptr, ptr %3, align 8
  %69 = getelementptr inbounds nuw %struct.SN_env, ptr %68, i32 0, i32 1
  store i32 %67, ptr %69, align 8
  store i32 0, ptr %7, align 4
  br label %70

70:                                               ; preds = %61, %62
  call void @llvm.lifetime.end.p0(i64 4, ptr %6) #3
  %71 = load i32, ptr %7, align 4
  switch i32 %71, label %80 [
    i32 0, label %72
  ]

72:                                               ; preds = %70
  %73 = load ptr, ptr %3, align 8
  %74 = getelementptr inbounds nuw %struct.SN_env, ptr %73, i32 0, i32 2
  %75 = load i32, ptr %74, align 4
  %76 = load i32, ptr %5, align 4
  %77 = sub i32 %75, %76
  %78 = load ptr, ptr %3, align 8
  %79 = getelementptr inbounds nuw %struct.SN_env, ptr %78, i32 0, i32 1
  store i32 %77, ptr %79, align 8
  store i32 0, ptr %7, align 4
  br label %80

80:                                               ; preds = %72, %70
  call void @llvm.lifetime.end.p0(i64 4, ptr %5) #3
  %81 = load i32, ptr %7, align 4
  switch i32 %81, label %197 [
    i32 0, label %82
    i32 2, label %98
  ]

82:                                               ; preds = %80
  %83 = load ptr, ptr %3, align 8
  %84 = getelementptr inbounds nuw %struct.SN_env, ptr %83, i32 0, i32 1
  %85 = load i32, ptr %84, align 8
  %86 = load ptr, ptr %3, align 8
  %87 = getelementptr inbounds nuw %struct.SN_env, ptr %86, i32 0, i32 4
  store i32 %85, ptr %87, align 4
  call void @llvm.lifetime.start.p0(i64 4, ptr %8) #3
  %88 = load ptr, ptr %3, align 8
  %89 = call i32 @slice_from_s(ptr noundef %88, i32 noundef 3, ptr noundef @s_47)
  store i32 %89, ptr %8, align 4
  %90 = load i32, ptr %8, align 4
  %91 = icmp slt i32 %90, 0
  br i1 %91, label %92, label %94

92:                                               ; preds = %82
  %93 = load i32, ptr %8, align 4
  store i32 %93, ptr %2, align 4
  store i32 1, ptr %7, align 4
  br label %95

94:                                               ; preds = %82
  store i32 0, ptr %7, align 4
  br label %95

95:                                               ; preds = %94, %92
  call void @llvm.lifetime.end.p0(i64 4, ptr %8) #3
  %96 = load i32, ptr %7, align 4
  switch i32 %96, label %197 [
    i32 0, label %97
  ]

97:                                               ; preds = %95
  store i32 4, ptr %7, align 4
  br label %197

98:                                               ; preds = %80, %41
  %99 = load ptr, ptr %3, align 8
  %100 = getelementptr inbounds nuw %struct.SN_env, ptr %99, i32 0, i32 2
  %101 = load i32, ptr %100, align 4
  %102 = load i32, ptr %4, align 4
  %103 = sub i32 %101, %102
  %104 = load ptr, ptr %3, align 8
  %105 = getelementptr inbounds nuw %struct.SN_env, ptr %104, i32 0, i32 1
  store i32 %103, ptr %105, align 8
  %106 = load ptr, ptr %3, align 8
  %107 = getelementptr inbounds nuw %struct.SN_env, ptr %106, i32 0, i32 1
  %108 = load i32, ptr %107, align 8
  %109 = load ptr, ptr %3, align 8
  %110 = getelementptr inbounds nuw %struct.SN_env, ptr %109, i32 0, i32 5
  store i32 %108, ptr %110, align 8
  %111 = load ptr, ptr %3, align 8
  %112 = call i32 @eq_s_b(ptr noundef %111, i32 noundef 15, ptr noundef @s_48)
  %113 = icmp ne i32 %112, 0
  br i1 %113, label %115, label %114

114:                                              ; preds = %98
  br label %131

115:                                              ; preds = %98
  %116 = load ptr, ptr %3, align 8
  %117 = getelementptr inbounds nuw %struct.SN_env, ptr %116, i32 0, i32 1
  %118 = load i32, ptr %117, align 8
  %119 = load ptr, ptr %3, align 8
  %120 = getelementptr inbounds nuw %struct.SN_env, ptr %119, i32 0, i32 4
  store i32 %118, ptr %120, align 4
  call void @llvm.lifetime.start.p0(i64 4, ptr %9) #3
  %121 = load ptr, ptr %3, align 8
  %122 = call i32 @slice_from_s(ptr noundef %121, i32 noundef 6, ptr noundef @s_49)
  store i32 %122, ptr %9, align 4
  %123 = load i32, ptr %9, align 4
  %124 = icmp slt i32 %123, 0
  br i1 %124, label %125, label %127

125:                                              ; preds = %115
  %126 = load i32, ptr %9, align 4
  store i32 %126, ptr %2, align 4
  store i32 1, ptr %7, align 4
  br label %128

127:                                              ; preds = %115
  store i32 0, ptr %7, align 4
  br label %128

128:                                              ; preds = %127, %125
  call void @llvm.lifetime.end.p0(i64 4, ptr %9) #3
  %129 = load i32, ptr %7, align 4
  switch i32 %129, label %197 [
    i32 0, label %130
  ]

130:                                              ; preds = %128
  store i32 4, ptr %7, align 4
  br label %197

131:                                              ; preds = %114
  %132 = load ptr, ptr %3, align 8
  %133 = getelementptr inbounds nuw %struct.SN_env, ptr %132, i32 0, i32 2
  %134 = load i32, ptr %133, align 4
  %135 = load i32, ptr %4, align 4
  %136 = sub i32 %134, %135
  %137 = load ptr, ptr %3, align 8
  %138 = getelementptr inbounds nuw %struct.SN_env, ptr %137, i32 0, i32 1
  store i32 %136, ptr %138, align 8
  %139 = load ptr, ptr %3, align 8
  %140 = getelementptr inbounds nuw %struct.SN_env, ptr %139, i32 0, i32 1
  %141 = load i32, ptr %140, align 8
  %142 = load ptr, ptr %3, align 8
  %143 = getelementptr inbounds nuw %struct.SN_env, ptr %142, i32 0, i32 5
  store i32 %141, ptr %143, align 8
  %144 = load ptr, ptr %3, align 8
  %145 = call i32 @eq_s_b(ptr noundef %144, i32 noundef 15, ptr noundef @s_50)
  %146 = icmp ne i32 %145, 0
  br i1 %146, label %148, label %147

147:                                              ; preds = %131
  br label %164

148:                                              ; preds = %131
  %149 = load ptr, ptr %3, align 8
  %150 = getelementptr inbounds nuw %struct.SN_env, ptr %149, i32 0, i32 1
  %151 = load i32, ptr %150, align 8
  %152 = load ptr, ptr %3, align 8
  %153 = getelementptr inbounds nuw %struct.SN_env, ptr %152, i32 0, i32 4
  store i32 %151, ptr %153, align 4
  call void @llvm.lifetime.start.p0(i64 4, ptr %10) #3
  %154 = load ptr, ptr %3, align 8
  %155 = call i32 @slice_from_s(ptr noundef %154, i32 noundef 6, ptr noundef @s_51)
  store i32 %155, ptr %10, align 4
  %156 = load i32, ptr %10, align 4
  %157 = icmp slt i32 %156, 0
  br i1 %157, label %158, label %160

158:                                              ; preds = %148
  %159 = load i32, ptr %10, align 4
  store i32 %159, ptr %2, align 4
  store i32 1, ptr %7, align 4
  br label %161

160:                                              ; preds = %148
  store i32 0, ptr %7, align 4
  br label %161

161:                                              ; preds = %160, %158
  call void @llvm.lifetime.end.p0(i64 4, ptr %10) #3
  %162 = load i32, ptr %7, align 4
  switch i32 %162, label %197 [
    i32 0, label %163
  ]

163:                                              ; preds = %161
  store i32 4, ptr %7, align 4
  br label %197

164:                                              ; preds = %147
  %165 = load ptr, ptr %3, align 8
  %166 = getelementptr inbounds nuw %struct.SN_env, ptr %165, i32 0, i32 2
  %167 = load i32, ptr %166, align 4
  %168 = load i32, ptr %4, align 4
  %169 = sub i32 %167, %168
  %170 = load ptr, ptr %3, align 8
  %171 = getelementptr inbounds nuw %struct.SN_env, ptr %170, i32 0, i32 1
  store i32 %169, ptr %171, align 8
  %172 = load ptr, ptr %3, align 8
  %173 = getelementptr inbounds nuw %struct.SN_env, ptr %172, i32 0, i32 1
  %174 = load i32, ptr %173, align 8
  %175 = load ptr, ptr %3, align 8
  %176 = getelementptr inbounds nuw %struct.SN_env, ptr %175, i32 0, i32 5
  store i32 %174, ptr %176, align 8
  %177 = load ptr, ptr %3, align 8
  %178 = call i32 @eq_s_b(ptr noundef %177, i32 noundef 9, ptr noundef @s_52)
  %179 = icmp ne i32 %178, 0
  br i1 %179, label %181, label %180

180:                                              ; preds = %164
  store i32 0, ptr %2, align 4
  store i32 1, ptr %7, align 4
  br label %197

181:                                              ; preds = %164
  %182 = load ptr, ptr %3, align 8
  %183 = getelementptr inbounds nuw %struct.SN_env, ptr %182, i32 0, i32 1
  %184 = load i32, ptr %183, align 8
  %185 = load ptr, ptr %3, align 8
  %186 = getelementptr inbounds nuw %struct.SN_env, ptr %185, i32 0, i32 4
  store i32 %184, ptr %186, align 4
  call void @llvm.lifetime.start.p0(i64 4, ptr %11) #3
  %187 = load ptr, ptr %3, align 8
  %188 = call i32 @slice_del(ptr noundef %187)
  store i32 %188, ptr %11, align 4
  %189 = load i32, ptr %11, align 4
  %190 = icmp slt i32 %189, 0
  br i1 %190, label %191, label %193

191:                                              ; preds = %181
  %192 = load i32, ptr %11, align 4
  store i32 %192, ptr %2, align 4
  store i32 1, ptr %7, align 4
  br label %194

193:                                              ; preds = %181
  store i32 0, ptr %7, align 4
  br label %194

194:                                              ; preds = %193, %191
  call void @llvm.lifetime.end.p0(i64 4, ptr %11) #3
  %195 = load i32, ptr %7, align 4
  switch i32 %195, label %197 [
    i32 0, label %196
  ]

196:                                              ; preds = %194
  store i32 0, ptr %7, align 4
  br label %197

197:                                              ; preds = %163, %130, %97, %196, %194, %180, %161, %128, %95, %80
  call void @llvm.lifetime.end.p0(i64 4, ptr %4) #3
  %198 = load i32, ptr %7, align 4
  switch i32 %198, label %212 [
    i32 0, label %199
    i32 1, label %210
    i32 4, label %200
  ]

199:                                              ; preds = %197
  br label %200

200:                                              ; preds = %199, %197
  %201 = load ptr, ptr %3, align 8
  %202 = getelementptr inbounds nuw %struct.SN_env, ptr %201, i32 0, i32 7
  %203 = load ptr, ptr %202, align 8
  %204 = getelementptr inbounds i32, ptr %203, i64 1
  store i32 1, ptr %204, align 4
  %205 = load ptr, ptr %3, align 8
  %206 = getelementptr inbounds nuw %struct.SN_env, ptr %205, i32 0, i32 3
  %207 = load i32, ptr %206, align 8
  %208 = load ptr, ptr %3, align 8
  %209 = getelementptr inbounds nuw %struct.SN_env, ptr %208, i32 0, i32 1
  store i32 %207, ptr %209, align 8
  store i32 1, ptr %2, align 4
  br label %210

210:                                              ; preds = %200, %197
  %211 = load i32, ptr %2, align 4
  ret i32 %211

212:                                              ; preds = %197
  unreachable
}