; Function Attrs: nounwind uwtable
define internal fastcc i32 @r_remove_plural_suffix(ptr noundef initializes((16, 20), (24, 28)) %0) unnamed_addr #0 {
  %2 = getelementptr inbounds nuw i8, ptr %0, i64 40
  %3 = load ptr, ptr %2, align 8
  %4 = getelementptr inbounds nuw i8, ptr %3, i64 4
  store i32 0, ptr %4, align 4
  %5 = getelementptr inbounds nuw i8, ptr %0, i64 8
  %6 = load i32, ptr %5, align 8
  %7 = getelementptr inbounds nuw i8, ptr %0, i64 16
  store i32 %6, ptr %7, align 8
  %8 = getelementptr inbounds nuw i8, ptr %0, i64 12
  %9 = load i32, ptr %8, align 4
  store i32 %9, ptr %5, align 8
  %10 = getelementptr inbounds nuw i8, ptr %0, i64 24
  store i32 %9, ptr %10, align 8
  %11 = tail call i32 @eq_s_b(ptr noundef %0, i32 noundef 18, ptr noundef nonnull @s_46) #3
  %.not = icmp eq i32 %11, 0
  br i1 %.not, label %22, label %12

12:                                               ; preds = %1
  %13 = load i32, ptr %8, align 4
  %14 = load i32, ptr %5, align 8
  %15 = tail call i32 @find_among_b(ptr noundef nonnull %0, ptr noundef nonnull @a_13, i32 noundef 6) #3
  %.not82 = icmp eq i32 %15, 0
  br i1 %.not82, label %16, label %22

16:                                               ; preds = %12
  %.neg = sub i32 %14, %13
  %17 = load i32, ptr %8, align 4
  %18 = add i32 %17, %.neg
  store i32 %18, ptr %5, align 8
  %19 = getelementptr inbounds nuw i8, ptr %0, i64 20
  store i32 %18, ptr %19, align 4
  %20 = tail call i32 @slice_from_s(ptr noundef nonnull %0, i32 noundef 3, ptr noundef nonnull @s_47) #3
  %21 = icmp sgt i32 %20, -1
  br i1 %21, label %.thread104, label %.thread92

22:                                               ; preds = %12, %1
  %23 = load i32, ptr %8, align 4
  store i32 %23, ptr %5, align 8
  store i32 %23, ptr %10, align 8
  %24 = tail call i32 @eq_s_b(ptr noundef nonnull %0, i32 noundef 15, ptr noundef nonnull @s_48) #3
  %.not83 = icmp eq i32 %24, 0
  br i1 %.not83, label %30, label %25

25:                                               ; preds = %22
  %26 = load i32, ptr %5, align 8
  %27 = getelementptr inbounds nuw i8, ptr %0, i64 20
  store i32 %26, ptr %27, align 4
  %28 = tail call i32 @slice_from_s(ptr noundef nonnull %0, i32 noundef 6, ptr noundef nonnull @s_49) #3
  %29 = icmp sgt i32 %28, -1
  br i1 %29, label %.thread104, label %.thread92

30:                                               ; preds = %22
  %31 = load i32, ptr %8, align 4
  store i32 %31, ptr %5, align 8
  store i32 %31, ptr %10, align 8
  %32 = tail call i32 @eq_s_b(ptr noundef nonnull %0, i32 noundef 15, ptr noundef nonnull @s_50) #3
  %.not84 = icmp eq i32 %32, 0
  br i1 %.not84, label %38, label %33

33:                                               ; preds = %30
  %34 = load i32, ptr %5, align 8
  %35 = getelementptr inbounds nuw i8, ptr %0, i64 20
  store i32 %34, ptr %35, align 4
  %36 = tail call i32 @slice_from_s(ptr noundef nonnull %0, i32 noundef 6, ptr noundef nonnull @s_51) #3
  %37 = icmp sgt i32 %36, -1
  br i1 %37, label %.thread104, label %.thread92

38:                                               ; preds = %30
  %39 = load i32, ptr %8, align 4
  store i32 %39, ptr %5, align 8
  store i32 %39, ptr %10, align 8
  %40 = tail call i32 @eq_s_b(ptr noundef nonnull %0, i32 noundef 9, ptr noundef nonnull @s_52) #3
  %.not85 = icmp eq i32 %40, 0
  br i1 %.not85, label %.thread92, label %41

41:                                               ; preds = %38
  %42 = load i32, ptr %5, align 8
  %43 = getelementptr inbounds nuw i8, ptr %0, i64 20
  store i32 %42, ptr %43, align 4
  %44 = tail call i32 @slice_del(ptr noundef nonnull %0) #3
  %switch.not = icmp sgt i32 %44, -1
  br i1 %switch.not, label %.thread104, label %.thread92

.thread104:                                       ; preds = %16, %33, %25, %41
  %45 = load ptr, ptr %2, align 8
  %46 = getelementptr inbounds nuw i8, ptr %45, i64 4
  store i32 1, ptr %46, align 4
  %47 = load i32, ptr %7, align 8
  store i32 %47, ptr %5, align 8
  br label %.thread92

.thread92:                                        ; preds = %16, %33, %25, %38, %41, %.thread104
  %.5 = phi i32 [ %44, %41 ], [ 1, %.thread104 ], [ 0, %38 ], [ %20, %16 ], [ %36, %33 ], [ %28, %25 ]
  ret i32 %.5
}